target datalayout = "e-m:e-p270:32:32-p271:32:32-p272:64:64-i64:64-i128:128-f80:128-n8:16:32:64-S128"
target triple = "x86_64-pc-linux-gnu"

@hf_nas_eps_emm_ebi0 = internal global i32 0, align 4
@hf_nas_eps_emm_ebi1 = internal global i32 0, align 4
@hf_nas_eps_emm_ebi2 = internal global i32 0, align 4
@hf_nas_eps_emm_ebi3 = internal global i32 0, align 4
@hf_nas_eps_emm_ebi4 = internal global i32 0, align 4
@hf_nas_eps_emm_ebi5 = internal global i32 0, align 4
@hf_nas_eps_emm_ebi6 = internal global i32 0, align 4
@hf_nas_eps_emm_ebi7 = internal global i32 0, align 4
@hf_nas_eps_emm_ebi8 = internal global i32 0, align 4
@hf_nas_eps_emm_ebi9 = internal global i32 0, align 4
@hf_nas_eps_emm_ebi10 = internal global i32 0, align 4
@hf_nas_eps_emm_ebi11 = internal global i32 0, align 4
@hf_nas_eps_emm_ebi12 = internal global i32 0, align 4
@hf_nas_eps_emm_ebi13 = internal global i32 0, align 4
@hf_nas_eps_emm_ebi14 = internal global i32 0, align 4
@hf_nas_eps_emm_ebi15 = internal global i32 0, align 4

; Function Attrs: null_pointer_is_valid sspstrong uwtable
define internal zeroext i16 @de_eps_cmn_eps_be_ctx_status(ptr noundef %0, ptr noundef %1, ptr noundef %2, i32 noundef %3, i32 noundef %4, ptr noundef %5, i32 noundef %6) #1 {
  %8 = alloca ptr, align 8
  %9 = alloca ptr, align 8
  %10 = alloca ptr, align 8
  %11 = alloca i32, align 4
  %12 = alloca i32, align 4
  %13 = alloca ptr, align 8
  %14 = alloca i32, align 4
  %15 = alloca i32, align 4
  store ptr %0, ptr %8, align 8
  store ptr %1, ptr %9, align 8
  store ptr %2, ptr %10, align 8
  store i32 %3, ptr %11, align 4
  store i32 %4, ptr %12, align 4
  store ptr %5, ptr %13, align 8
  store i32 %6, ptr %14, align 4
  call void @llvm.lifetime.start.p0(i64 4, ptr %15) #10
  %16 = load i32, ptr %11, align 4
  store i32 %16, ptr %15, align 4
  %17 = load ptr, ptr %9, align 8
  %18 = load i32, ptr @hf_nas_eps_emm_ebi7, align 4
  %19 = load ptr, ptr %8, align 8
  %20 = load i32, ptr %15, align 4
  %21 = call ptr @proto_tree_add_item(ptr noundef %17, i32 noundef %18, ptr noundef %19, i32 noundef %20, i32 noundef 1, i32 noundef 0)
  %22 = load ptr, ptr %9, align 8
  %23 = load i32, ptr @hf_nas_eps_emm_ebi6, align 4
  %24 = load ptr, ptr %8, align 8
  %25 = load i32, ptr %15, align 4
  %26 = call ptr @proto_tree_add_item(ptr noundef %22, i32 noundef %23, ptr noundef %24, i32 noundef %25, i32 noundef 1, i32 noundef 0)
  %27 = load ptr, ptr %9, align 8
  %28 = load i32, ptr @hf_nas_eps_emm_ebi5, align 4
  %29 = load ptr, ptr %8, align 8
  %30 = load i32, ptr %15, align 4
  %31 = call ptr @proto_tree_add_item(ptr noundef %27, i32 noundef %28, ptr noundef %29, i32 noundef %30, i32 noundef 1, i32 noundef 0)
  %32 = load ptr, ptr %9, align 8
  %33 = load i32, ptr @hf_nas_eps_emm_ebi4, align 4
  %34 = load ptr, ptr %8, align 8
  %35 = load i32, ptr %15, align 4
  %36 = call ptr @proto_tree_add_item(ptr noundef %32, i32 noundef %33, ptr noundef %34, i32 noundef %35, i32 noundef 1, i32 noundef 0)
  %37 = load ptr, ptr %9, align 8
  %38 = load i32, ptr @hf_nas_eps_emm_ebi3, align 4
  %39 = load ptr, ptr %8, align 8
  %40 = load i32, ptr %15, align 4
  %41 = call ptr @proto_tree_add_item(ptr noundef %37, i32 noundef %38, ptr noundef %39, i32 noundef %40, i32 noundef 1, i32 noundef 0)
  %42 = load ptr, ptr %9, align 8
  %43 = load i32, ptr @hf_nas_eps_emm_ebi2, align 4
  %44 = load ptr, ptr %8, align 8
  %45 = load i32, ptr %15, align 4
  %46 = call ptr @proto_tree_add_item(ptr noundef %42, i32 noundef %43, ptr noundef %44, i32 noundef %45, i32 noundef 1, i32 noundef 0)
  %47 = load ptr, ptr %9, align 8
  %48 = load i32, ptr @hf_nas_eps_emm_ebi1, align 4
  %49 = load ptr, ptr %8, align 8
  %50 = load i32, ptr %15, align 4
  %51 = call ptr @proto_tree_add_item(ptr noundef %47, i32 noundef %48, ptr noundef %49, i32 noundef %50, i32 noundef 1, i32 noundef 0)
  %52 = load ptr, ptr %9, align 8
  %53 = load i32, ptr @hf_nas_eps_emm_ebi0, align 4
  %54 = load ptr, ptr %8, align 8
  %55 = load i32, ptr %15, align 4
  %56 = call ptr @proto_tree_add_item(ptr noundef %52, i32 noundef %53, ptr noundef %54, i32 noundef %55, i32 noundef 1, i32 noundef 0)
  %57 = load i32, ptr %15, align 4
  %58 = add i32 %57, 1
  store i32 %58, ptr %15, align 4
  %59 = load ptr, ptr %9, align 8
  %60 = load i32, ptr @hf_nas_eps_emm_ebi15, align 4
  %61 = load ptr, ptr %8, align 8
  %62 = load i32, ptr %15, align 4
  %63 = call ptr @proto_tree_add_item(ptr noundef %59, i32 noundef %60, ptr noundef %61, i32 noundef %62, i32 noundef 1, i32 noundef 0)
  %64 = load ptr, ptr %9, align 8
  %65 = load i32, ptr @hf_nas_eps_emm_ebi14, align 4
  %66 = load ptr, ptr %8, align 8
  %67 = load i32, ptr %15, align 4
  %68 = call ptr @proto_tree_add_item(ptr noundef %64, i32 noundef %65, ptr noundef %66, i32 noundef %67, i32 noundef 1, i32 noundef 0)
  %69 = load ptr, ptr %9, align 8
  %70 = load i32, ptr @hf_nas_eps_emm_ebi13, align 4
  %71 = load ptr, ptr %8, align 8
  %72 = load i32, ptr %15, align 4
  %73 = call ptr @proto_tree_add_item(ptr noundef %69, i32 noundef %70, ptr noundef %71, i32 noundef %72, i32 noundef 1, i32 noundef 0)
  %74 = load ptr, ptr %9, align 8
  %75 = load i32, ptr @hf_nas_eps_emm_ebi12, align 4
  %76 = load ptr, ptr %8, align 8
  %77 = load i32, ptr %15, align 4
  %78 = call ptr @proto_tree_add_item(ptr noundef %74, i32 noundef %75, ptr noundef %76, i32 noundef %77, i32 noundef 1, i32 noundef 0)
  %79 = load ptr, ptr %9, align 8
  %80 = load i32, ptr @hf_nas_eps_emm_ebi11, align 4
  %81 = load ptr, ptr %8, align 8
  %82 = load i32, ptr %15, align 4
  %83 = call ptr @proto_tree_add_item(ptr noundef %79, i32 noundef %80, ptr noundef %81, i32 noundef %82, i32 noundef 1, i32 noundef 0)
  %84 = load ptr, ptr %9, align 8
  %85 = load i32, ptr @hf_nas_eps_emm_ebi10, align 4
  %86 = load ptr, ptr %8, align 8
  %87 = load i32, ptr %15, align 4
  %88 = call ptr @proto_tree_add_item(ptr noundef %84, i32 noundef %85, ptr noundef %86, i32 noundef %87, i32 noundef 1, i32 noundef 0)
  %89 = load ptr, ptr %9, align 8
  %90 = load i32, ptr @hf_nas_eps_emm_ebi9, align 4
  %91 = load ptr, ptr %8, align 8
  %92 = load i32, ptr %15, align 4
  %93 = call ptr @proto_tree_add_item(ptr noundef %89, i32 noundef %90, ptr noundef %91, i32 noundef %92, i32 noundef 1, i32 noundef 0)
  %94 = load ptr, ptr %9, align 8
  %95 = load i32, ptr @hf_nas_eps_emm_ebi8, align 4
  %96 = load ptr, ptr %8, align 8
  %97 = load i32, ptr %15, align 4
  %98 = call ptr @proto_tree_add_item(ptr noundef %94, i32 noundef %95, ptr noundef %96, i32 noundef %97, i32 noundef 1, i32 noundef 0)
  %99 = load i32, ptr %12, align 4
  %100 = trunc i32 %99 to i16
  call void @llvm.lifetime.end.p0(i64 4, ptr %15) #10
  ret i16 %100
}