; Function Attrs: null_pointer_is_valid sspstrong uwtable
define internal noundef zeroext i16 @de_eps_cmn_eps_be_ctx_status(ptr noundef %0, ptr noundef %1, ptr readnone captures(none) %2, i32 noundef %3, i32 noundef %4, ptr readnone captures(none) %5, i32 %6) #1 {
  %8 = load i32, ptr @hf_nas_eps_emm_ebi7, align 4
  %9 = tail call ptr @proto_tree_add_item(ptr noundef %1, i32 noundef %8, ptr noundef %0, i32 noundef %3, i32 noundef 1, i32 noundef 0)
  %10 = load i32, ptr @hf_nas_eps_emm_ebi6, align 4
  %11 = tail call ptr @proto_tree_add_item(ptr noundef %1, i32 noundef %10, ptr noundef %0, i32 noundef %3, i32 noundef 1, i32 noundef 0)
  %12 = load i32, ptr @hf_nas_eps_emm_ebi5, align 4
  %13 = tail call ptr @proto_tree_add_item(ptr noundef %1, i32 noundef %12, ptr noundef %0, i32 noundef %3, i32 noundef 1, i32 noundef 0)
  %14 = load i32, ptr @hf_nas_eps_emm_ebi4, align 4
  %15 = tail call ptr @proto_tree_add_item(ptr noundef %1, i32 noundef %14, ptr noundef %0, i32 noundef %3, i32 noundef 1, i32 noundef 0)
  %16 = load i32, ptr @hf_nas_eps_emm_ebi3, align 4
  %17 = tail call ptr @proto_tree_add_item(ptr noundef %1, i32 noundef %16, ptr noundef %0, i32 noundef %3, i32 noundef 1, i32 noundef 0)
  %18 = load i32, ptr @hf_nas_eps_emm_ebi2, align 4
  %19 = tail call ptr @proto_tree_add_item(ptr noundef %1, i32 noundef %18, ptr noundef %0, i32 noundef %3, i32 noundef 1, i32 noundef 0)
  %20 = load i32, ptr @hf_nas_eps_emm_ebi1, align 4
  %21 = tail call ptr @proto_tree_add_item(ptr noundef %1, i32 noundef %20, ptr noundef %0, i32 noundef %3, i32 noundef 1, i32 noundef 0)
  %22 = load i32, ptr @hf_nas_eps_emm_ebi0, align 4
  %23 = tail call ptr @proto_tree_add_item(ptr noundef %1, i32 noundef %22, ptr noundef %0, i32 noundef %3, i32 noundef 1, i32 noundef 0)
  %24 = add i32 %3, 1
  %25 = load i32, ptr @hf_nas_eps_emm_ebi15, align 4
  %26 = tail call ptr @proto_tree_add_item(ptr noundef %1, i32 noundef %25, ptr noundef %0, i32 noundef %24, i32 noundef 1, i32 noundef 0)
  %27 = load i32, ptr @hf_nas_eps_emm_ebi14, align 4
  %28 = tail call ptr @proto_tree_add_item(ptr noundef %1, i32 noundef %27, ptr noundef %0, i32 noundef %24, i32 noundef 1, i32 noundef 0)
  %29 = load i32, ptr @hf_nas_eps_emm_ebi13, align 4
  %30 = tail call ptr @proto_tree_add_item(ptr noundef %1, i32 noundef %29, ptr noundef %0, i32 noundef %24, i32 noundef 1, i32 noundef 0)
  %31 = load i32, ptr @hf_nas_eps_emm_ebi12, align 4
  %32 = tail call ptr @proto_tree_add_item(ptr noundef %1, i32 noundef %31, ptr noundef %0, i32 noundef %24, i32 noundef 1, i32 noundef 0)
  %33 = load i32, ptr @hf_nas_eps_emm_ebi11, align 4
  %34 = tail call ptr @proto_tree_add_item(ptr noundef %1, i32 noundef %33, ptr noundef %0, i32 noundef %24, i32 noundef 1, i32 noundef 0)
  %35 = load i32, ptr @hf_nas_eps_emm_ebi10, align 4
  %36 = tail call ptr @proto_tree_add_item(ptr noundef %1, i32 noundef %35, ptr noundef %0, i32 noundef %24, i32 noundef 1, i32 noundef 0)
  %37 = load i32, ptr @hf_nas_eps_emm_ebi9, align 4
  %38 = tail call ptr @proto_tree_add_item(ptr noundef %1, i32 noundef %37, ptr noundef %0, i32 noundef %24, i32 noundef 1, i32 noundef 0)
  %39 = load i32, ptr @hf_nas_eps_emm_ebi8, align 4
  %40 = tail call ptr @proto_tree_add_item(ptr noundef %1, i32 noundef %39, ptr noundef %0, i32 noundef %24, i32 noundef 1, i32 noundef 0)
  %41 = trunc i32 %4 to i16
  ret i16 %41
}